; Function Attrs: nounwind uwtable
define internal void @_EndLOs(ptr noundef readonly captures(none) %0, ptr readnone captures(none) %1) #0 {
  %3 = getelementptr inbounds nuw i8, ptr %0, i64 592
  %4 = load ptr, ptr %3, align 8
  %5 = getelementptr inbounds nuw i8, ptr %4, i64 16
  %6 = load ptr, ptr %5, align 8
  %7 = tail call zeroext i1 @EndCompressFileHandle(ptr noundef %6) #14
  br i1 %7, label %9, label %8

8:                                                ; preds = %2
  tail call void (i32, i32, ptr, ...) @pg_log_generic(i32 noundef 4, i32 noundef 0, ptr noundef nonnull @.str.32) #14
  tail call void @exit_nicely(i32 noundef 1) #15
  unreachable

9:                                                ; preds = %2
  store ptr null, ptr %5, align 8
  ret void
}